target datalayout = "e-m:e-p270:32:32-p271:32:32-p272:64:64-i64:64-i128:128-f80:128-n8:16:32:64-S128"
target triple = "x86_64-pc-linux-gnu"

%struct.wtapng_block_s = type { i32, i32, ptr, ptr, ptr }
%struct.section_info_t = type { i32, i16, i16, ptr, i64, i32, i64, i64 }
%struct.pcapng_block_header_s = type { i32, i32 }
%struct._GArray = type { ptr, i32 }
%struct.wtap_rec = type { i32, i32, i32, %struct.nstime_t, i32, %struct.nstime_t, i32, %union.anon, ptr, i32, %struct.Buffer }
%struct.nstime_t = type { i64, i32 }
%union.anon = type { %struct.wtap_packet_header }
%struct.wtap_packet_header = type { i32, i32, i32, i32, %union.wtap_pseudo_header }
%union.wtap_pseudo_header = type { %struct.erf_mc_phdr }
%struct.erf_mc_phdr = type { %struct.erf_phdr, [16 x %struct.erf_ehdr], %union.anon.1 }
%struct.erf_phdr = type { i64, i8, i8, i16, i16, i16 }
%struct.erf_ehdr = type { i64 }
%union.anon.1 = type { i32 }
%struct.Buffer = type { ptr, i64, i64, i64 }
%struct.interface_info_s = type { i32, i32, i64, i32, i64, i32 }
%struct.pcapng_simple_packet_block_s = type { i32 }
%struct.wtapng_simple_packet_s = type { i32, i32 }

@.str.24 = private unnamed_addr constant [37 x i8] c"pcapng: cap_len %u is larger than %u\00", align 1
@.str.32 = private unnamed_addr constant [77 x i8] c"pcapng: total block length %u of an SPB is less than the minimum SPB size %u\00", align 1
@.str.33 = private unnamed_addr constant [52 x i8] c"pcapng: SPB appeared before any IDBs in the section\00", align 1
@.str.34 = private unnamed_addr constant [81 x i8] c"pcapng: total block length %u of an SPB is too small for %u bytes of packet data\00", align 1

; Function Attrs: nounwind uwtable
define internal i32 @pcapng_read_simple_packet_block(ptr noundef %0, ptr noundef %1, ptr noundef %2, ptr noundef %3, ptr noundef %4, ptr noundef %5) #0 {
  %7 = alloca i32, align 4
  %8 = alloca ptr, align 8
  %9 = alloca ptr, align 8
  %10 = alloca ptr, align 8
  %11 = alloca ptr, align 8
  %12 = alloca ptr, align 8
  %13 = alloca ptr, align 8
  %14 = alloca %struct.interface_info_s, align 8
  %15 = alloca %struct.pcapng_simple_packet_block_s, align 4
  %16 = alloca %struct.wtapng_simple_packet_s, align 4
  %17 = alloca i32, align 4
  %18 = alloca i32, align 4
  store ptr %0, ptr %8, align 8
  store ptr %1, ptr %9, align 8
  store ptr %2, ptr %10, align 8
  store ptr %3, ptr %11, align 8
  store ptr %4, ptr %12, align 8
  store ptr %5, ptr %13, align 8
  %19 = load ptr, ptr %9, align 8
  %20 = getelementptr inbounds %struct.pcapng_block_header_s, ptr %19, i32 0, i32 1
  %21 = load i32, ptr %20, align 4
  %22 = icmp ult i32 %21, 16
  br i1 %22, label %23, label %30

23:                                               ; preds = %6
  %24 = load ptr, ptr %12, align 8
  store i32 -13, ptr %24, align 4
  %25 = load ptr, ptr %9, align 8
  %26 = getelementptr inbounds %struct.pcapng_block_header_s, ptr %25, i32 0, i32 1
  %27 = load i32, ptr %26, align 4
  %28 = call noalias ptr (ptr, ptr, ...) @wmem_strdup_printf(ptr noundef null, ptr noundef @.str.32, i32 noundef %27, i32 noundef 16)
  %29 = load ptr, ptr %13, align 8
  store ptr %28, ptr %29, align 8
  store i32 0, ptr %7, align 4
  br label %290

30:                                               ; preds = %6
  %31 = load ptr, ptr %8, align 8
  %32 = load ptr, ptr %12, align 8
  %33 = load ptr, ptr %13, align 8
  %34 = call i32 @wtap_read_bytes(ptr noundef %31, ptr noundef %15, i32 noundef 4, ptr noundef %32, ptr noundef %33)
  %35 = icmp ne i32 %34, 0
  br i1 %35, label %39, label %36

36:                                               ; preds = %30
  br label %37

37:                                               ; preds = %36
  br label %38

38:                                               ; preds = %37
  store i32 0, ptr %7, align 4
  br label %290

39:                                               ; preds = %30
  %40 = load ptr, ptr %10, align 8
  %41 = getelementptr inbounds %struct.section_info_t, ptr %40, i32 0, i32 3
  %42 = load ptr, ptr %41, align 8
  %43 = getelementptr inbounds %struct._GArray, ptr %42, i32 0, i32 1
  %44 = load i32, ptr %43, align 8
  %45 = icmp uge i32 0, %44
  br i1 %45, label %46, label %50

46:                                               ; preds = %39
  %47 = load ptr, ptr %12, align 8
  store i32 -13, ptr %47, align 4
  %48 = call noalias ptr @g_strdup(ptr noundef @.str.33)
  %49 = load ptr, ptr %13, align 8
  store ptr %48, ptr %49, align 8
  store i32 0, ptr %7, align 4
  br label %290

50:                                               ; preds = %39
  %51 = load ptr, ptr %10, align 8
  %52 = getelementptr inbounds %struct.section_info_t, ptr %51, i32 0, i32 3
  %53 = load ptr, ptr %52, align 8
  %54 = getelementptr inbounds %struct._GArray, ptr %53, i32 0, i32 0
  %55 = load ptr, ptr %54, align 8
  %56 = getelementptr %struct.interface_info_s, ptr %55, i64 0
  call void @llvm.memcpy.p0.p0.i64(ptr align 8 %14, ptr align 8 %56, i64 40, i1 false)
  %57 = load ptr, ptr %10, align 8
  %58 = getelementptr inbounds %struct.section_info_t, ptr %57, i32 0, i32 0
  %59 = load i32, ptr %58, align 8
  %60 = icmp ne i32 %59, 0
  br i1 %60, label %61, label %82

61:                                               ; preds = %50
  %62 = getelementptr inbounds %struct.pcapng_simple_packet_block_s, ptr %15, i32 0, i32 0
  %63 = load i32, ptr %62, align 4
  %64 = and i32 %63, 255
  %65 = shl i32 %64, 24
  %66 = getelementptr inbounds %struct.pcapng_simple_packet_block_s, ptr %15, i32 0, i32 0
  %67 = load i32, ptr %66, align 4
  %68 = and i32 %67, 65280
  %69 = shl i32 %68, 8
  %70 = or i32 %65, %69
  %71 = getelementptr inbounds %struct.pcapng_simple_packet_block_s, ptr %15, i32 0, i32 0
  %72 = load i32, ptr %71, align 4
  %73 = and i32 %72, 16711680
  %74 = lshr i32 %73, 8
  %75 = or i32 %70, %74
  %76 = getelementptr inbounds %struct.pcapng_simple_packet_block_s, ptr %15, i32 0, i32 0
  %77 = load i32, ptr %76, align 4
  %78 = and i32 %77, -16777216
  %79 = lshr i32 %78, 24
  %80 = or i32 %75, %79
  %81 = getelementptr inbounds %struct.wtapng_simple_packet_s, ptr %16, i32 0, i32 1
  store i32 %80, ptr %81, align 4
  br label %86

82:                                               ; preds = %50
  %83 = getelementptr inbounds %struct.pcapng_simple_packet_block_s, ptr %15, i32 0, i32 0
  %84 = load i32, ptr %83, align 4
  %85 = getelementptr inbounds %struct.wtapng_simple_packet_s, ptr %16, i32 0, i32 1
  store i32 %84, ptr %85, align 4
  br label %86

86:                                               ; preds = %82, %61
  %87 = getelementptr inbounds %struct.wtapng_simple_packet_s, ptr %16, i32 0, i32 1
  %88 = load i32, ptr %87, align 4
  %89 = getelementptr inbounds %struct.wtapng_simple_packet_s, ptr %16, i32 0, i32 0
  store i32 %88, ptr %89, align 4
  %90 = getelementptr inbounds %struct.wtapng_simple_packet_s, ptr %16, i32 0, i32 0
  %91 = load i32, ptr %90, align 4
  %92 = getelementptr inbounds %struct.interface_info_s, ptr %14, i32 0, i32 1
  %93 = load i32, ptr %92, align 4
  %94 = icmp ugt i32 %91, %93
  br i1 %94, label %95, label %103

95:                                               ; preds = %86
  %96 = getelementptr inbounds %struct.interface_info_s, ptr %14, i32 0, i32 1
  %97 = load i32, ptr %96, align 4
  %98 = icmp ne i32 %97, 0
  br i1 %98, label %99, label %103

99:                                               ; preds = %95
  %100 = getelementptr inbounds %struct.interface_info_s, ptr %14, i32 0, i32 1
  %101 = load i32, ptr %100, align 4
  %102 = getelementptr inbounds %struct.wtapng_simple_packet_s, ptr %16, i32 0, i32 0
  store i32 %101, ptr %102, align 4
  br label %103

103:                                              ; preds = %99, %95, %86
  %104 = getelementptr inbounds %struct.wtapng_simple_packet_s, ptr %16, i32 0, i32 0
  %105 = load i32, ptr %104, align 4
  %106 = urem i32 %105, 4
  %107 = icmp ne i32 %106, 0
  br i1 %107, label %108, label %113

108:                                              ; preds = %103
  %109 = getelementptr inbounds %struct.wtapng_simple_packet_s, ptr %16, i32 0, i32 0
  %110 = load i32, ptr %109, align 4
  %111 = urem i32 %110, 4
  %112 = sub i32 4, %111
  store i32 %112, ptr %17, align 4
  br label %114

113:                                              ; preds = %103
  store i32 0, ptr %17, align 4
  br label %114

114:                                              ; preds = %113, %108
  %115 = load ptr, ptr %9, align 8
  %116 = getelementptr inbounds %struct.pcapng_block_header_s, ptr %115, i32 0, i32 1
  %117 = load i32, ptr %116, align 4
  %118 = getelementptr inbounds %struct.wtapng_simple_packet_s, ptr %16, i32 0, i32 0
  %119 = load i32, ptr %118, align 4
  %120 = add i32 16, %119
  %121 = load i32, ptr %17, align 4
  %122 = add i32 %120, %121
  %123 = icmp ult i32 %117, %122
  br i1 %123, label %124, label %133

124:                                              ; preds = %114
  %125 = load ptr, ptr %12, align 8
  store i32 -13, ptr %125, align 4
  %126 = load ptr, ptr %9, align 8
  %127 = getelementptr inbounds %struct.pcapng_block_header_s, ptr %126, i32 0, i32 1
  %128 = load i32, ptr %127, align 4
  %129 = getelementptr inbounds %struct.wtapng_simple_packet_s, ptr %16, i32 0, i32 1
  %130 = load i32, ptr %129, align 4
  %131 = call noalias ptr (ptr, ptr, ...) @wmem_strdup_printf(ptr noundef null, ptr noundef @.str.34, i32 noundef %128, i32 noundef %130)
  %132 = load ptr, ptr %13, align 8
  store ptr %131, ptr %132, align 8
  store i32 0, ptr %7, align 4
  br label %290

133:                                              ; preds = %114
  %134 = getelementptr inbounds %struct.wtapng_simple_packet_s, ptr %16, i32 0, i32 0
  %135 = load i32, ptr %134, align 4
  %136 = getelementptr inbounds %struct.interface_info_s, ptr %14, i32 0, i32 0
  %137 = load i32, ptr %136, align 8
  %138 = call i32 @wtap_max_snaplen_for_encap(i32 noundef %137)
  %139 = icmp ugt i32 %135, %138
  br i1 %139, label %140, label %149

140:                                              ; preds = %133
  %141 = load ptr, ptr %12, align 8
  store i32 -13, ptr %141, align 4
  %142 = getelementptr inbounds %struct.wtapng_simple_packet_s, ptr %16, i32 0, i32 0
  %143 = load i32, ptr %142, align 4
  %144 = getelementptr inbounds %struct.interface_info_s, ptr %14, i32 0, i32 0
  %145 = load i32, ptr %144, align 8
  %146 = call i32 @wtap_max_snaplen_for_encap(i32 noundef %145)
  %147 = call noalias ptr (ptr, ptr, ...) @wmem_strdup_printf(ptr noundef null, ptr noundef @.str.24, i32 noundef %143, i32 noundef %146)
  %148 = load ptr, ptr %13, align 8
  store ptr %147, ptr %148, align 8
  store i32 0, ptr %7, align 4
  br label %290

149:                                              ; preds = %133
  br label %150

150:                                              ; preds = %149
  br label %151

151:                                              ; preds = %150
  br label %152

152:                                              ; preds = %151
  br label %153

153:                                              ; preds = %152
  %154 = load ptr, ptr %11, align 8
  %155 = getelementptr inbounds %struct.wtapng_block_s, ptr %154, i32 0, i32 3
  %156 = load ptr, ptr %155, align 8
  %157 = getelementptr inbounds %struct.wtap_rec, ptr %156, i32 0, i32 0
  store i32 0, ptr %157, align 8
  %158 = load ptr, ptr %11, align 8
  %159 = getelementptr inbounds %struct.wtapng_block_s, ptr %158, i32 0, i32 3
  %160 = load ptr, ptr %159, align 8
  %161 = getelementptr inbounds %struct.wtap_rec, ptr %160, i32 0, i32 1
  store i32 6, ptr %161, align 4
  %162 = load ptr, ptr %11, align 8
  %163 = getelementptr inbounds %struct.wtapng_block_s, ptr %162, i32 0, i32 3
  %164 = load ptr, ptr %163, align 8
  %165 = getelementptr inbounds %struct.wtap_rec, ptr %164, i32 0, i32 7
  %166 = getelementptr inbounds %struct.wtap_packet_header, ptr %165, i32 0, i32 3
  store i32 0, ptr %166, align 4
  %167 = getelementptr inbounds %struct.interface_info_s, ptr %14, i32 0, i32 0
  %168 = load i32, ptr %167, align 8
  %169 = load ptr, ptr %11, align 8
  %170 = getelementptr inbounds %struct.wtapng_block_s, ptr %169, i32 0, i32 3
  %171 = load ptr, ptr %170, align 8
  %172 = getelementptr inbounds %struct.wtap_rec, ptr %171, i32 0, i32 7
  %173 = getelementptr inbounds %struct.wtap_packet_header, ptr %172, i32 0, i32 2
  store i32 %168, ptr %173, align 8
  %174 = getelementptr inbounds %struct.interface_info_s, ptr %14, i32 0, i32 3
  %175 = load i32, ptr %174, align 8
  %176 = load ptr, ptr %11, align 8
  %177 = getelementptr inbounds %struct.wtapng_block_s, ptr %176, i32 0, i32 3
  %178 = load ptr, ptr %177, align 8
  %179 = getelementptr inbounds %struct.wtap_rec, ptr %178, i32 0, i32 4
  store i32 %175, ptr %179, align 8
  %180 = load ptr, ptr %11, align 8
  %181 = getelementptr inbounds %struct.wtapng_block_s, ptr %180, i32 0, i32 3
  %182 = load ptr, ptr %181, align 8
  %183 = getelementptr inbounds %struct.wtap_rec, ptr %182, i32 0, i32 3
  %184 = getelementptr inbounds %struct.nstime_t, ptr %183, i32 0, i32 0
  store i64 0, ptr %184, align 8
  %185 = load ptr, ptr %11, align 8
  %186 = getelementptr inbounds %struct.wtapng_block_s, ptr %185, i32 0, i32 3
  %187 = load ptr, ptr %186, align 8
  %188 = getelementptr inbounds %struct.wtap_rec, ptr %187, i32 0, i32 3
  %189 = getelementptr inbounds %struct.nstime_t, ptr %188, i32 0, i32 1
  store i32 0, ptr %189, align 8
  %190 = load ptr, ptr %11, align 8
  %191 = getelementptr inbounds %struct.wtapng_block_s, ptr %190, i32 0, i32 3
  %192 = load ptr, ptr %191, align 8
  %193 = getelementptr inbounds %struct.wtap_rec, ptr %192, i32 0, i32 7
  %194 = getelementptr inbounds %struct.wtap_packet_header, ptr %193, i32 0, i32 3
  store i32 0, ptr %194, align 4
  %195 = load ptr, ptr %11, align 8
  %196 = getelementptr inbounds %struct.wtapng_block_s, ptr %195, i32 0, i32 3
  %197 = load ptr, ptr %196, align 8
  %198 = getelementptr inbounds %struct.wtap_rec, ptr %197, i32 0, i32 7
  %199 = getelementptr inbounds %struct.wtap_packet_header, ptr %198, i32 0, i32 4
  call void @llvm.memset.p0.i64(ptr align 8 %199, i8 0, i64 152, i1 false)
  %200 = load ptr, ptr %8, align 8
  %201 = getelementptr inbounds %struct.interface_info_s, ptr %14, i32 0, i32 0
  %202 = load i32, ptr %201, align 8
  %203 = getelementptr inbounds %struct.wtapng_simple_packet_s, ptr %16, i32 0, i32 0
  %204 = load i32, ptr %203, align 4
  %205 = load ptr, ptr %11, align 8
  %206 = getelementptr inbounds %struct.wtapng_block_s, ptr %205, i32 0, i32 3
  %207 = load ptr, ptr %206, align 8
  %208 = load ptr, ptr %12, align 8
  %209 = load ptr, ptr %13, align 8
  %210 = call i32 @pcap_process_pseudo_header(ptr noundef %200, i32 noundef 0, i32 noundef %202, i32 noundef %204, ptr noundef %207, ptr noundef %208, ptr noundef %209)
  store i32 %210, ptr %18, align 4
  %211 = load i32, ptr %18, align 4
  %212 = icmp slt i32 %211, 0
  br i1 %212, label %213, label %214

213:                                              ; preds = %153
  store i32 0, ptr %7, align 4
  br label %290

214:                                              ; preds = %153
  %215 = getelementptr inbounds %struct.wtapng_simple_packet_s, ptr %16, i32 0, i32 0
  %216 = load i32, ptr %215, align 4
  %217 = load i32, ptr %18, align 4
  %218 = sub i32 %216, %217
  %219 = load ptr, ptr %11, align 8
  %220 = getelementptr inbounds %struct.wtapng_block_s, ptr %219, i32 0, i32 3
  %221 = load ptr, ptr %220, align 8
  %222 = getelementptr inbounds %struct.wtap_rec, ptr %221, i32 0, i32 7
  %223 = getelementptr inbounds %struct.wtap_packet_header, ptr %222, i32 0, i32 0
  store i32 %218, ptr %223, align 8
  %224 = getelementptr inbounds %struct.wtapng_simple_packet_s, ptr %16, i32 0, i32 1
  %225 = load i32, ptr %224, align 4
  %226 = load i32, ptr %18, align 4
  %227 = sub i32 %225, %226
  %228 = load ptr, ptr %11, align 8
  %229 = getelementptr inbounds %struct.wtapng_block_s, ptr %228, i32 0, i32 3
  %230 = load ptr, ptr %229, align 8
  %231 = getelementptr inbounds %struct.wtap_rec, ptr %230, i32 0, i32 7
  %232 = getelementptr inbounds %struct.wtap_packet_header, ptr %231, i32 0, i32 1
  store i32 %227, ptr %232, align 4
  %233 = load ptr, ptr %11, align 8
  %234 = getelementptr inbounds %struct.wtapng_block_s, ptr %233, i32 0, i32 3
  %235 = load ptr, ptr %234, align 8
  %236 = getelementptr inbounds %struct.wtap_rec, ptr %235, i32 0, i32 7
  %237 = getelementptr inbounds %struct.wtap_packet_header, ptr %236, i32 0, i32 4
  call void @llvm.memset.p0.i64(ptr align 8 %237, i8 0, i64 152, i1 false)
  %238 = load ptr, ptr %8, align 8
  %239 = load ptr, ptr %11, align 8
  %240 = getelementptr inbounds %struct.wtapng_block_s, ptr %239, i32 0, i32 4
  %241 = load ptr, ptr %240, align 8
  %242 = getelementptr inbounds %struct.wtapng_simple_packet_s, ptr %16, i32 0, i32 0
  %243 = load i32, ptr %242, align 4
  %244 = load ptr, ptr %12, align 8
  %245 = load ptr, ptr %13, align 8
  %246 = call i32 @wtap_read_packet_bytes(ptr noundef %238, ptr noundef %241, i32 noundef %243, ptr noundef %244, ptr noundef %245)
  %247 = icmp ne i32 %246, 0
  br i1 %247, label %249, label %248

248:                                              ; preds = %214
  store i32 0, ptr %7, align 4
  br label %290

249:                                              ; preds = %214
  %250 = getelementptr inbounds %struct.wtapng_simple_packet_s, ptr %16, i32 0, i32 0
  %251 = load i32, ptr %250, align 4
  %252 = urem i32 %251, 4
  %253 = icmp ne i32 %252, 0
  br i1 %253, label %254, label %266

254:                                              ; preds = %249
  %255 = load ptr, ptr %8, align 8
  %256 = getelementptr inbounds %struct.wtapng_simple_packet_s, ptr %16, i32 0, i32 0
  %257 = load i32, ptr %256, align 4
  %258 = urem i32 %257, 4
  %259 = sub i32 4, %258
  %260 = load ptr, ptr %12, align 8
  %261 = load ptr, ptr %13, align 8
  %262 = call i32 @wtap_read_bytes(ptr noundef %255, ptr noundef null, i32 noundef %259, ptr noundef %260, ptr noundef %261)
  %263 = icmp ne i32 %262, 0
  br i1 %263, label %265, label %264

264:                                              ; preds = %254
  store i32 0, ptr %7, align 4
  br label %290

265:                                              ; preds = %254
  br label %266

266:                                              ; preds = %265, %249
  %267 = getelementptr inbounds %struct.interface_info_s, ptr %14, i32 0, i32 0
  %268 = load i32, ptr %267, align 8
  %269 = load ptr, ptr %11, align 8
  %270 = getelementptr inbounds %struct.wtapng_block_s, ptr %269, i32 0, i32 3
  %271 = load ptr, ptr %270, align 8
  %272 = load ptr, ptr %11, align 8
  %273 = getelementptr inbounds %struct.wtapng_block_s, ptr %272, i32 0, i32 4
  %274 = load ptr, ptr %273, align 8
  %275 = getelementptr inbounds %struct.Buffer, ptr %274, i32 0, i32 0
  %276 = load ptr, ptr %275, align 8
  %277 = load ptr, ptr %11, align 8
  %278 = getelementptr inbounds %struct.wtapng_block_s, ptr %277, i32 0, i32 4
  %279 = load ptr, ptr %278, align 8
  %280 = getelementptr inbounds %struct.Buffer, ptr %279, i32 0, i32 2
  %281 = load i64, ptr %280, align 8
  %282 = getelementptr i8, ptr %276, i64 %281
  %283 = load ptr, ptr %10, align 8
  %284 = getelementptr inbounds %struct.section_info_t, ptr %283, i32 0, i32 0
  %285 = load i32, ptr %284, align 8
  %286 = getelementptr inbounds %struct.interface_info_s, ptr %14, i32 0, i32 5
  %287 = load i32, ptr %286, align 8
  call void @pcap_read_post_process(i32 noundef 0, i32 noundef %268, ptr noundef %271, ptr noundef %282, i32 noundef %285, i32 noundef %287)
  %288 = load ptr, ptr %11, align 8
  %289 = getelementptr inbounds %struct.wtapng_block_s, ptr %288, i32 0, i32 1
  store i32 0, ptr %289, align 4
  store i32 1, ptr %7, align 4
  br label %290

290:                                              ; preds = %266, %264, %248, %213, %140, %124, %46, %38, %23
  %291 = load i32, ptr %7, align 4
  ret i32 %291
}