; Function Attrs: nounwind uwtable
define internal fastcc range(i32 0, 2) i32 @pcapng_read_simple_packet_block(ptr noundef %0, ptr noundef nonnull readonly captures(none) %1, ptr noundef readonly captures(none) %2, ptr noundef nonnull captures(none) %3, ptr noundef %4, ptr noundef %5) unnamed_addr #0 {
  %7 = alloca %struct.pcapng_simple_packet_block_s, align 4
  %8 = getelementptr inbounds nuw i8, ptr %1, i64 4
  %9 = load i32, ptr %8, align 4
  %10 = icmp ult i32 %9, 16
  br i1 %10, label %11, label %14

11:                                               ; preds = %6
  store i32 -13, ptr %4, align 4
  %12 = load i32, ptr %8, align 4
  %13 = tail call noalias ptr (ptr, ptr, ...) @wmem_strdup_printf(ptr noundef null, ptr noundef nonnull @.str.32, i32 noundef %12, i32 noundef 16) #16
  store ptr %13, ptr %5, align 8
  br label %91

14:                                               ; preds = %6
  %15 = call i32 @wtap_read_bytes(ptr noundef %0, ptr noundef nonnull %7, i32 noundef 4, ptr noundef %4, ptr noundef %5) #16
  %.not = icmp eq i32 %15, 0
  br i1 %.not, label %91, label %16

16:                                               ; preds = %14
  %17 = getelementptr inbounds nuw i8, ptr %2, i64 8
  %18 = load ptr, ptr %17, align 8
  %19 = getelementptr inbounds nuw i8, ptr %18, i64 8
  %20 = load i32, ptr %19, align 8
  %21 = icmp eq i32 %20, 0
  br i1 %21, label %22, label %24

22:                                               ; preds = %16
  store i32 -13, ptr %4, align 4
  %23 = call noalias ptr @g_strdup(ptr noundef nonnull @.str.33) #16
  store ptr %23, ptr %5, align 8
  br label %91

24:                                               ; preds = %16
  %25 = load ptr, ptr %18, align 8
  %.sroa.018.0.copyload = load i32, ptr %25, align 8
  %.sroa.6.0..sroa_idx = getelementptr inbounds nuw i8, ptr %25, i64 4
  %.sroa.6.0.copyload = load i32, ptr %.sroa.6.0..sroa_idx, align 4
  %.sroa.925.0..sroa_idx = getelementptr inbounds nuw i8, ptr %25, i64 16
  %.sroa.925.0.copyload = load i32, ptr %.sroa.925.0..sroa_idx, align 8
  %.sroa.1026.0..sroa_idx = getelementptr inbounds nuw i8, ptr %25, i64 32
  %.sroa.1026.0.copyload = load i32, ptr %.sroa.1026.0..sroa_idx, align 8
  %26 = load i32, ptr %2, align 8
  %.not76 = icmp eq i32 %26, 0
  %27 = load i32, ptr %7, align 4
  %28 = call i32 @llvm.bswap.i32(i32 %27)
  %.sroa.13.0 = select i1 %.not76, i32 %27, i32 %28
  %.not80 = icmp eq i32 %.sroa.6.0.copyload, 0
  %29 = call i32 @llvm.umin.i32(i32 %.sroa.13.0, i32 %.sroa.6.0.copyload)
  %.sroa.0.0 = select i1 %.not80, i32 %.sroa.13.0, i32 %29
  %30 = and i32 %.sroa.0.0, 3
  %.not77 = icmp eq i32 %30, 0
  %31 = sub nuw nsw i32 4, %30
  %.073 = select i1 %.not77, i32 0, i32 %31
  %32 = load i32, ptr %8, align 4
  %33 = add i32 %.sroa.0.0, 16
  %34 = add i32 %33, %.073
  %35 = icmp ult i32 %32, %34
  br i1 %35, label %36, label %39

36:                                               ; preds = %24
  store i32 -13, ptr %4, align 4
  %37 = load i32, ptr %8, align 4
  %38 = call noalias ptr (ptr, ptr, ...) @wmem_strdup_printf(ptr noundef null, ptr noundef nonnull @.str.34, i32 noundef %37, i32 noundef %.sroa.13.0) #16
  store ptr %38, ptr %5, align 8
  br label %91

39:                                               ; preds = %24
  %40 = call i32 @wtap_max_snaplen_for_encap(i32 noundef %.sroa.018.0.copyload) #16
  %41 = icmp ugt i32 %.sroa.0.0, %40
  br i1 %41, label %42, label %45

42:                                               ; preds = %39
  store i32 -13, ptr %4, align 4
  %43 = call i32 @wtap_max_snaplen_for_encap(i32 noundef %.sroa.018.0.copyload) #16
  %44 = call noalias ptr (ptr, ptr, ...) @wmem_strdup_printf(ptr noundef null, ptr noundef nonnull @.str.24, i32 noundef %.sroa.0.0, i32 noundef %43) #16
  store ptr %44, ptr %5, align 8
  br label %91

45:                                               ; preds = %39
  %46 = getelementptr inbounds nuw i8, ptr %3, i64 16
  %47 = load ptr, ptr %46, align 8
  store i32 0, ptr %47, align 8
  %48 = load ptr, ptr %46, align 8
  %49 = getelementptr inbounds nuw i8, ptr %48, i64 4
  store i32 6, ptr %49, align 4
  %50 = load ptr, ptr %46, align 8
  %51 = getelementptr inbounds nuw i8, ptr %50, i64 76
  store i32 0, ptr %51, align 4
  %52 = load ptr, ptr %46, align 8
  %53 = getelementptr inbounds nuw i8, ptr %52, i64 72
  store i32 %.sroa.018.0.copyload, ptr %53, align 8
  %54 = load ptr, ptr %46, align 8
  %55 = getelementptr inbounds nuw i8, ptr %54, i64 32
  store i32 %.sroa.925.0.copyload, ptr %55, align 8
  %56 = load ptr, ptr %46, align 8
  %57 = getelementptr inbounds nuw i8, ptr %56, i64 16
  store i64 0, ptr %57, align 8
  %58 = load ptr, ptr %46, align 8
  %59 = getelementptr inbounds nuw i8, ptr %58, i64 24
  store i32 0, ptr %59, align 8
  %60 = load ptr, ptr %46, align 8
  %61 = getelementptr inbounds nuw i8, ptr %60, i64 76
  store i32 0, ptr %61, align 4
  %62 = load ptr, ptr %46, align 8
  %63 = getelementptr inbounds nuw i8, ptr %62, i64 80
  call void @llvm.memset.p0.i64(ptr noundef nonnull align 8 dereferenceable(152) %63, i8 0, i64 152, i1 false)
  %64 = load ptr, ptr %46, align 8
  %65 = call i32 @pcap_process_pseudo_header(ptr noundef %0, i32 noundef 0, i32 noundef %.sroa.018.0.copyload, i32 noundef %.sroa.0.0, ptr noundef %64, ptr noundef %4, ptr noundef %5) #16
  %66 = icmp slt i32 %65, 0
  br i1 %66, label %91, label %67

67:                                               ; preds = %45
  %68 = sub i32 %.sroa.0.0, %65
  %69 = load ptr, ptr %46, align 8
  %70 = getelementptr inbounds nuw i8, ptr %69, i64 64
  store i32 %68, ptr %70, align 8
  %71 = sub i32 %.sroa.13.0, %65
  %72 = load ptr, ptr %46, align 8
  %73 = getelementptr inbounds nuw i8, ptr %72, i64 68
  store i32 %71, ptr %73, align 4
  %74 = load ptr, ptr %46, align 8
  %75 = getelementptr inbounds nuw i8, ptr %74, i64 80
  call void @llvm.memset.p0.i64(ptr noundef nonnull align 8 dereferenceable(152) %75, i8 0, i64 152, i1 false)
  %76 = getelementptr inbounds nuw i8, ptr %3, i64 24
  %77 = load ptr, ptr %76, align 8
  %78 = call i32 @wtap_read_packet_bytes(ptr noundef %0, ptr noundef %77, i32 noundef %.sroa.0.0, ptr noundef %4, ptr noundef %5) #16
  %.not78 = icmp eq i32 %78, 0
  br i1 %.not78, label %91, label %79

79:                                               ; preds = %67
  br i1 %.not77, label %82, label %80

80:                                               ; preds = %79
  %81 = call i32 @wtap_read_bytes(ptr noundef %0, ptr noundef null, i32 noundef %31, ptr noundef %4, ptr noundef %5) #16
  %.not79 = icmp eq i32 %81, 0
  br i1 %.not79, label %91, label %82

82:                                               ; preds = %80, %79
  %83 = load ptr, ptr %46, align 8
  %84 = load ptr, ptr %76, align 8
  %85 = load ptr, ptr %84, align 8
  %86 = getelementptr inbounds nuw i8, ptr %84, i64 16
  %87 = load i64, ptr %86, align 8
  %88 = getelementptr i8, ptr %85, i64 %87
  %89 = load i32, ptr %2, align 8
  call void @pcap_read_post_process(i32 noundef 0, i32 noundef %.sroa.018.0.copyload, ptr noundef %83, ptr noundef %88, i32 noundef %89, i32 noundef %.sroa.1026.0.copyload) #16
  %90 = getelementptr inbounds nuw i8, ptr %3, i64 4
  store i32 0, ptr %90, align 4
  br label %91

91:                                               ; preds = %80, %67, %45, %14, %82, %42, %36, %22, %11
  %.0 = phi i32 [ 0, %11 ], [ 0, %22 ], [ 0, %36 ], [ 0, %42 ], [ 1, %82 ], [ 0, %14 ], [ 0, %45 ], [ 0, %67 ], [ 0, %80 ]
  ret i32 %.0
}